; Function Attrs: mustprogress uwtable
define void @_Z13FreeThreadMemv() local_unnamed_addr #3 {
  %1 = tail call noundef i32 @_ZNK6System10NumThreadsEv(ptr noundef nonnull align 8 dereferenceable(200) @sysdep)
  %.not = icmp eq i32 %1, 0
  br i1 %.not, label %._crit_edge, label %.lr.ph

.lr.ph:                                           ; preds = %0, %.lr.ph
  %.03 = phi i32 [ %2, %.lr.ph ], [ 0, %0 ]
  tail call void @_ZN6Memory11ResetThreadEj(ptr noundef nonnull align 8 dereferenceable(56) @memory, i32 noundef %.03)
  %2 = add nuw i32 %.03, 1
  %3 = tail call noundef i32 @_ZNK6System10NumThreadsEv(ptr noundef nonnull align 8 dereferenceable(200) @sysdep)
  %4 = icmp ult i32 %2, %3
  br i1 %4, label %.lr.ph, label %._crit_edge, !llvm.loop !38

._crit_edge:                                      ; preds = %.lr.ph, %0
  ret void
}